target datalayout = "e-m:e-p270:32:32-p271:32:32-p272:64:64-i64:64-i128:128-f80:128-n8:16:32:64-S128"
target triple = "x86_64-pc-linux-gnu"

%"class.OpenSubdiv::v3_6_0::Bfr::Parameterization" = type { i8, i8, i16 }
%"class.OpenSubdiv::v3_6_0::Bfr::Tessellation" = type { %"class.OpenSubdiv::v3_6_0::Bfr::Parameterization", i8, i16, i32, i32, i32, i32, i32, i32, [2 x i32], ptr, [4 x i32] }

; Function Attrs: mustprogress nounwind uwtable
define linkonce_odr noundef i32 @_ZN10OpenSubdiv6v3_6_03Bfr4quad20CountSegmentedFacetsEPKib(ptr noundef %0, i1 noundef zeroext %1) #1 comdat align 2 {
  %3 = alloca ptr, align 8
  %4 = alloca i8, align 1
  store ptr %0, ptr %3, align 8
  %5 = zext i1 %1 to i8
  store i8 %5, ptr %4, align 1
  %6 = load ptr, ptr %3, align 8
  %7 = getelementptr inbounds i32, ptr %6, i64 0
  %8 = load i32, ptr %7, align 4
  %9 = load ptr, ptr %3, align 8
  %10 = getelementptr inbounds i32, ptr %9, i64 1
  %11 = load i32, ptr %10, align 4
  %12 = mul nsw i32 %8, %11
  %13 = load i8, ptr %4, align 1
  %14 = trunc i8 %13 to i1
  %15 = zext i1 %14 to i32
  %16 = shl i32 %12, %15
  ret i32 %16
}

; Function Attrs: mustprogress nounwind uwtable
define linkonce_odr noundef i32 @_ZN10OpenSubdiv6v3_6_03Bfr4quad19CountInteriorCoordsEPKi(ptr noundef %0) #1 comdat align 2 {
  %2 = alloca ptr, align 8
  store ptr %0, ptr %2, align 8
  %3 = load ptr, ptr %2, align 8
  %4 = getelementptr inbounds i32, ptr %3, i64 0
  %5 = load i32, ptr %4, align 4
  %6 = sub nsw i32 %5, 1
  %7 = load ptr, ptr %2, align 8
  %8 = getelementptr inbounds i32, ptr %7, i64 1
  %9 = load i32, ptr %8, align 4
  %10 = sub nsw i32 %9, 1
  %11 = mul nsw i32 %6, %10
  ret i32 %11
}

; Function Attrs: mustprogress nounwind uwtable
define linkonce_odr noundef i32 @_ZN10OpenSubdiv6v3_6_03Bfr4quad18CountUniformFacetsEib(i32 noundef %0, i1 noundef zeroext %1) #1 comdat align 2 {
  %3 = alloca i32, align 4
  %4 = alloca i8, align 1
  store i32 %0, ptr %3, align 4
  %5 = zext i1 %1 to i8
  store i8 %5, ptr %4, align 1
  %6 = load i32, ptr %3, align 4
  %7 = load i32, ptr %3, align 4
  %8 = mul nsw i32 %6, %7
  %9 = load i8, ptr %4, align 1
  %10 = trunc i8 %9 to i1
  %11 = zext i1 %10 to i32
  %12 = shl i32 %8, %11
  ret i32 %12
}

; Function Attrs: mustprogress nounwind uwtable
define linkonce_odr noundef i32 @_ZN10OpenSubdiv6v3_6_03Bfr4quad19CountInteriorCoordsEi(i32 noundef %0) #1 comdat align 2 {
  %2 = alloca i32, align 4
  store i32 %0, ptr %2, align 4
  %3 = load i32, ptr %2, align 4
  %4 = sub nsw i32 %3, 1
  %5 = load i32, ptr %2, align 4
  %6 = sub nsw i32 %5, 1
  %7 = mul nsw i32 %4, %6
  ret i32 %7
}

; Function Attrs: mustprogress uwtable
define void @_ZN10OpenSubdiv6v3_6_03Bfr12Tessellation31initializeInventoryForParamQuadEi(ptr noundef nonnull align 8 dereferenceable(64) %0, i32 noundef %1) #0 align 2 {
  %3 = alloca ptr, align 8
  %4 = alloca i32, align 4
  %5 = alloca ptr, align 8
  %6 = alloca ptr, align 8
  store ptr %0, ptr %3, align 8
  store i32 %1, ptr %4, align 4
  %7 = load ptr, ptr %3, align 8
  %8 = getelementptr inbounds nuw %"class.OpenSubdiv::v3_6_0::Bfr::Tessellation", ptr %7, i32 0, i32 9
  %9 = getelementptr inbounds [2 x i32], ptr %8, i64 0, i64 0
  store ptr %9, ptr %5, align 8
  %10 = getelementptr inbounds nuw %"class.OpenSubdiv::v3_6_0::Bfr::Tessellation", ptr %7, i32 0, i32 10
  %11 = load ptr, ptr %10, align 8
  %12 = getelementptr inbounds i32, ptr %11, i64 0
  store ptr %12, ptr %6, align 8
  %13 = getelementptr inbounds nuw %"class.OpenSubdiv::v3_6_0::Bfr::Tessellation", ptr %7, i32 0, i32 1
  %14 = load i8, ptr %13, align 4
  %15 = lshr i8 %14, 1
  %16 = and i8 %15, 1
  %17 = zext i8 %16 to i16
  %18 = icmp ne i16 %17, 0
  br i1 %18, label %19, label %64

19:                                               ; preds = %2
  %20 = load ptr, ptr %5, align 8
  %21 = getelementptr inbounds i32, ptr %20, i64 0
  %22 = load i32, ptr %21, align 4
  %23 = icmp sgt i32 %22, 1
  br i1 %23, label %24, label %41

24:                                               ; preds = %19
  %25 = load ptr, ptr %5, align 8
  %26 = getelementptr inbounds i32, ptr %25, i64 0
  %27 = load i32, ptr %26, align 4
  %28 = call noundef i32 @_ZN10OpenSubdiv6v3_6_03Bfr4quad19CountInteriorCoordsEi(i32 noundef %27)
  %29 = getelementptr inbounds nuw %"class.OpenSubdiv::v3_6_0::Bfr::Tessellation", ptr %7, i32 0, i32 7
  store i32 %28, ptr %29, align 8
  %30 = load ptr, ptr %5, align 8
  %31 = getelementptr inbounds i32, ptr %30, i64 0
  %32 = load i32, ptr %31, align 4
  %33 = getelementptr inbounds nuw %"class.OpenSubdiv::v3_6_0::Bfr::Tessellation", ptr %7, i32 0, i32 1
  %34 = load i8, ptr %33, align 4
  %35 = lshr i8 %34, 2
  %36 = and i8 %35, 1
  %37 = zext i8 %36 to i16
  %38 = icmp ne i16 %37, 0
  %39 = call noundef i32 @_ZN10OpenSubdiv6v3_6_03Bfr4quad18CountUniformFacetsEib(i32 noundef %32, i1 noundef zeroext %38)
  %40 = getelementptr inbounds nuw %"class.OpenSubdiv::v3_6_0::Bfr::Tessellation", ptr %7, i32 0, i32 8
  store i32 %39, ptr %40, align 4
  br label %63

41:                                               ; preds = %19
  %42 = getelementptr inbounds nuw %"class.OpenSubdiv::v3_6_0::Bfr::Tessellation", ptr %7, i32 0, i32 1
  %43 = load i8, ptr %42, align 4
  %44 = lshr i8 %43, 2
  %45 = and i8 %44, 1
  %46 = zext i8 %45 to i16
  %47 = icmp ne i16 %46, 0
  br i1 %47, label %48, label %55

48:                                               ; preds = %41
  %49 = getelementptr inbounds nuw %"class.OpenSubdiv::v3_6_0::Bfr::Tessellation", ptr %7, i32 0, i32 7
  store i32 0, ptr %49, align 8
  %50 = getelementptr inbounds nuw %"class.OpenSubdiv::v3_6_0::Bfr::Tessellation", ptr %7, i32 0, i32 8
  store i32 2, ptr %50, align 4
  %51 = getelementptr inbounds nuw %"class.OpenSubdiv::v3_6_0::Bfr::Tessellation", ptr %7, i32 0, i32 1
  %52 = load i8, ptr %51, align 4
  %53 = and i8 %52, -65
  %54 = or i8 %53, 64
  store i8 %54, ptr %51, align 4
  br label %62

55:                                               ; preds = %41
  %56 = getelementptr inbounds nuw %"class.OpenSubdiv::v3_6_0::Bfr::Tessellation", ptr %7, i32 0, i32 7
  store i32 0, ptr %56, align 8
  %57 = getelementptr inbounds nuw %"class.OpenSubdiv::v3_6_0::Bfr::Tessellation", ptr %7, i32 0, i32 8
  store i32 1, ptr %57, align 4
  %58 = getelementptr inbounds nuw %"class.OpenSubdiv::v3_6_0::Bfr::Tessellation", ptr %7, i32 0, i32 1
  %59 = load i8, ptr %58, align 4
  %60 = and i8 %59, -9
  %61 = or i8 %60, 8
  store i8 %61, ptr %58, align 4
  br label %62

62:                                               ; preds = %55, %48
  br label %63

63:                                               ; preds = %62, %24
  br label %149

64:                                               ; preds = %2
  %65 = load ptr, ptr %5, align 8
  %66 = getelementptr inbounds i32, ptr %65, i64 0
  %67 = load i32, ptr %66, align 4
  %68 = icmp sgt i32 %67, 1
  br i1 %68, label %69, label %91

69:                                               ; preds = %64
  %70 = load ptr, ptr %5, align 8
  %71 = getelementptr inbounds i32, ptr %70, i64 1
  %72 = load i32, ptr %71, align 4
  %73 = icmp sgt i32 %72, 1
  br i1 %73, label %74, label %91

74:                                               ; preds = %69
  %75 = getelementptr inbounds nuw %"class.OpenSubdiv::v3_6_0::Bfr::Tessellation", ptr %7, i32 0, i32 9
  %76 = getelementptr inbounds [2 x i32], ptr %75, i64 0, i64 0
  %77 = call noundef i32 @_ZN10OpenSubdiv6v3_6_03Bfr4quad19CountInteriorCoordsEPKi(ptr noundef %76)
  %78 = getelementptr inbounds nuw %"class.OpenSubdiv::v3_6_0::Bfr::Tessellation", ptr %7, i32 0, i32 7
  store i32 %77, ptr %78, align 8
  %79 = getelementptr inbounds nuw %"class.OpenSubdiv::v3_6_0::Bfr::Tessellation", ptr %7, i32 0, i32 10
  %80 = load ptr, ptr %79, align 8
  %81 = getelementptr inbounds nuw %"class.OpenSubdiv::v3_6_0::Bfr::Tessellation", ptr %7, i32 0, i32 9
  %82 = getelementptr inbounds [2 x i32], ptr %81, i64 0, i64 0
  %83 = getelementptr inbounds nuw %"class.OpenSubdiv::v3_6_0::Bfr::Tessellation", ptr %7, i32 0, i32 1
  %84 = load i8, ptr %83, align 4
  %85 = lshr i8 %84, 2
  %86 = and i8 %85, 1
  %87 = zext i8 %86 to i16
  %88 = icmp ne i16 %87, 0
  %89 = call noundef i32 @_ZN10OpenSubdiv6v3_6_03Bfr4quad21CountNonUniformFacetsEPKiS4_b(ptr noundef %80, ptr noundef %82, i1 noundef zeroext %88)
  %90 = getelementptr inbounds nuw %"class.OpenSubdiv::v3_6_0::Bfr::Tessellation", ptr %7, i32 0, i32 8
  store i32 %89, ptr %90, align 4
  br label %148

91:                                               ; preds = %69, %64
  %92 = load ptr, ptr %6, align 8
  %93 = getelementptr inbounds i32, ptr %92, i64 0
  %94 = load i32, ptr %93, align 4
  %95 = load ptr, ptr %5, align 8
  %96 = getelementptr inbounds i32, ptr %95, i64 0
  %97 = load i32, ptr %96, align 4
  %98 = icmp eq i32 %94, %97
  br i1 %98, label %99, label %139

99:                                               ; preds = %91
  %100 = load ptr, ptr %5, align 8
  %101 = getelementptr inbounds i32, ptr %100, i64 0
  %102 = load i32, ptr %101, align 4
  %103 = load ptr, ptr %6, align 8
  %104 = getelementptr inbounds i32, ptr %103, i64 2
  %105 = load i32, ptr %104, align 4
  %106 = icmp eq i32 %102, %105
  br i1 %106, label %107, label %139

107:                                              ; preds = %99
  %108 = load ptr, ptr %6, align 8
  %109 = getelementptr inbounds i32, ptr %108, i64 1
  %110 = load i32, ptr %109, align 4
  %111 = load ptr, ptr %5, align 8
  %112 = getelementptr inbounds i32, ptr %111, i64 1
  %113 = load i32, ptr %112, align 4
  %114 = icmp eq i32 %110, %113
  br i1 %114, label %115, label %139

115:                                              ; preds = %107
  %116 = load ptr, ptr %5, align 8
  %117 = getelementptr inbounds i32, ptr %116, i64 1
  %118 = load i32, ptr %117, align 4
  %119 = load ptr, ptr %6, align 8
  %120 = getelementptr inbounds i32, ptr %119, i64 3
  %121 = load i32, ptr %120, align 4
  %122 = icmp eq i32 %118, %121
  br i1 %122, label %123, label %139

123:                                              ; preds = %115
  %124 = getelementptr inbounds nuw %"class.OpenSubdiv::v3_6_0::Bfr::Tessellation", ptr %7, i32 0, i32 7
  store i32 0, ptr %124, align 8
  %125 = getelementptr inbounds nuw %"class.OpenSubdiv::v3_6_0::Bfr::Tessellation", ptr %7, i32 0, i32 9
  %126 = getelementptr inbounds [2 x i32], ptr %125, i64 0, i64 0
  %127 = getelementptr inbounds nuw %"class.OpenSubdiv::v3_6_0::Bfr::Tessellation", ptr %7, i32 0, i32 1
  %128 = load i8, ptr %127, align 4
  %129 = lshr i8 %128, 2
  %130 = and i8 %129, 1
  %131 = zext i8 %130 to i16
  %132 = icmp ne i16 %131, 0
  %133 = call noundef i32 @_ZN10OpenSubdiv6v3_6_03Bfr4quad20CountSegmentedFacetsEPKib(ptr noundef %126, i1 noundef zeroext %132)
  %134 = getelementptr inbounds nuw %"class.OpenSubdiv::v3_6_0::Bfr::Tessellation", ptr %7, i32 0, i32 8
  store i32 %133, ptr %134, align 4
  %135 = getelementptr inbounds nuw %"class.OpenSubdiv::v3_6_0::Bfr::Tessellation", ptr %7, i32 0, i32 1
  %136 = load i8, ptr %135, align 4
  %137 = and i8 %136, -17
  %138 = or i8 %137, 16
  store i8 %138, ptr %135, align 4
  br label %147

139:                                              ; preds = %115, %107, %99, %91
  %140 = getelementptr inbounds nuw %"class.OpenSubdiv::v3_6_0::Bfr::Tessellation", ptr %7, i32 0, i32 7
  store i32 1, ptr %140, align 8
  %141 = load i32, ptr %4, align 4
  %142 = getelementptr inbounds nuw %"class.OpenSubdiv::v3_6_0::Bfr::Tessellation", ptr %7, i32 0, i32 8
  store i32 %141, ptr %142, align 4
  %143 = getelementptr inbounds nuw %"class.OpenSubdiv::v3_6_0::Bfr::Tessellation", ptr %7, i32 0, i32 1
  %144 = load i8, ptr %143, align 4
  %145 = and i8 %144, -33
  %146 = or i8 %145, 32
  store i8 %146, ptr %143, align 4
  br label %147

147:                                              ; preds = %139, %123
  br label %148

148:                                              ; preds = %147, %74
  br label %149

149:                                              ; preds = %148, %63
  %150 = load i32, ptr %4, align 4
  %151 = getelementptr inbounds nuw %"class.OpenSubdiv::v3_6_0::Bfr::Tessellation", ptr %7, i32 0, i32 6
  store i32 %150, ptr %151, align 4
  ret void
}