; Function Attrs: mustprogress nofree norecurse nosync nounwind willreturn memory(read, argmem: readwrite, inaccessiblemem: none) uwtable
define void @_ZN10OpenSubdiv6v3_6_03Bfr12Tessellation31initializeInventoryForParamQuadEi(ptr nocapture noundef nonnull align 8 dereferenceable(64) %0, i32 noundef %1) local_unnamed_addr #8 align 2 {
  %3 = getelementptr inbounds nuw i8, ptr %0, i64 32
  %4 = getelementptr inbounds nuw i8, ptr %0, i64 40
  %5 = load ptr, ptr %4, align 8
  %6 = getelementptr inbounds nuw i8, ptr %0, i64 4
  %7 = load i8, ptr %6, align 4
  %8 = and i8 %7, 2
  %.not = icmp eq i8 %8, 0
  %9 = load i32, ptr %3, align 8
  %10 = icmp sgt i32 %9, 1
  br i1 %.not, label %28, label %11

11:                                               ; preds = %2
  %12 = getelementptr inbounds nuw i8, ptr %0, i64 24
  br i1 %10, label %13, label %21

13:                                               ; preds = %11
  %14 = add nsw i32 %9, -1
  %15 = mul nsw i32 %14, %14
  store i32 %15, ptr %12, align 8
  %16 = mul nuw nsw i32 %9, %9
  %17 = lshr i8 %7, 2
  %.lobit = and i8 %17, 1
  %18 = zext nneg i8 %.lobit to i32
  %19 = shl nuw i32 %16, %18
  %20 = getelementptr inbounds nuw i8, ptr %0, i64 28
  store i32 %19, ptr %20, align 4
  br label %68

21:                                               ; preds = %11
  %22 = and i8 %7, 4
  %.not17 = icmp eq i8 %22, 0
  store i32 0, ptr %12, align 8
  %23 = getelementptr inbounds nuw i8, ptr %0, i64 28
  br i1 %.not17, label %26, label %24

24:                                               ; preds = %21
  store i32 2, ptr %23, align 4
  %25 = or i8 %7, 64
  store i8 %25, ptr %6, align 4
  br label %68

26:                                               ; preds = %21
  store i32 1, ptr %23, align 4
  %27 = or i8 %7, 8
  store i8 %27, ptr %6, align 4
  br label %68

28:                                               ; preds = %2
  %29 = getelementptr inbounds i8, ptr %0, i64 36
  %30 = load i32, ptr %29, align 4
  %31 = icmp sgt i32 %30, 1
  %or.cond = select i1 %10, i1 %31, i1 false
  br i1 %or.cond, label %32, label %41

32:                                               ; preds = %28
  %33 = add nsw i32 %9, -1
  %34 = add nsw i32 %30, -1
  %35 = mul nsw i32 %34, %33
  %36 = getelementptr inbounds nuw i8, ptr %0, i64 24
  store i32 %35, ptr %36, align 8
  %37 = and i8 %7, 4
  %38 = icmp ne i8 %37, 0
  %39 = tail call noundef i32 @_ZN10OpenSubdiv6v3_6_03Bfr4quad21CountNonUniformFacetsEPKiS4_b(ptr noundef %5, ptr noundef nonnull %3, i1 noundef zeroext %38)
  %40 = getelementptr inbounds nuw i8, ptr %0, i64 28
  store i32 %39, ptr %40, align 4
  br label %68

41:                                               ; preds = %28
  %42 = load i32, ptr %5, align 4
  %43 = icmp eq i32 %42, %9
  br i1 %43, label %44, label %64

44:                                               ; preds = %41
  %45 = getelementptr inbounds i8, ptr %5, i64 8
  %46 = load i32, ptr %45, align 4
  %47 = icmp eq i32 %9, %46
  br i1 %47, label %48, label %64

48:                                               ; preds = %44
  %49 = getelementptr inbounds i8, ptr %5, i64 4
  %50 = load i32, ptr %49, align 4
  %51 = icmp eq i32 %50, %30
  br i1 %51, label %52, label %64

52:                                               ; preds = %48
  %53 = getelementptr inbounds i8, ptr %5, i64 12
  %54 = load i32, ptr %53, align 4
  %55 = icmp eq i32 %30, %54
  br i1 %55, label %56, label %64

56:                                               ; preds = %52
  %57 = getelementptr inbounds nuw i8, ptr %0, i64 24
  store i32 0, ptr %57, align 8
  %58 = mul nsw i32 %30, %9
  %59 = lshr i8 %7, 2
  %.lobit20 = and i8 %59, 1
  %60 = zext nneg i8 %.lobit20 to i32
  %61 = shl i32 %58, %60
  %62 = getelementptr inbounds nuw i8, ptr %0, i64 28
  store i32 %61, ptr %62, align 4
  %63 = or i8 %7, 16
  store i8 %63, ptr %6, align 4
  br label %68

64:                                               ; preds = %52, %48, %44, %41
  %65 = getelementptr inbounds nuw i8, ptr %0, i64 24
  store i32 1, ptr %65, align 8
  %66 = getelementptr inbounds nuw i8, ptr %0, i64 28
  store i32 %1, ptr %66, align 4
  %67 = or i8 %7, 32
  store i8 %67, ptr %6, align 4
  br label %68

68:                                               ; preds = %32, %64, %56, %13, %26, %24
  %69 = getelementptr inbounds nuw i8, ptr %0, i64 20
  store i32 %1, ptr %69, align 4
  ret void
}